target datalayout = "e-m:e-p270:32:32-p271:32:32-p272:64:64-i64:64-i128:128-f80:128-n8:16:32:64-S128"
target triple = "x86_64-pc-linux-gnu"

@.str.17 = private unnamed_addr constant [95 x i8] c"cli_mpool_strndup(): s == NULL. Please report to https://github.com/Cisco-Talos/clamav/issues\0A\00", align 1
@.str.18 = private unnamed_addr constant [57 x i8] c"cli_mpool_strndup(): Can't allocate memory (%lu bytes).\0A\00", align 1

; Function Attrs: nounwind uwtable
define ptr @cli_mpool_strndup(ptr noundef %0, ptr noundef %1, i64 noundef %2) #0 {
  %4 = alloca ptr, align 8
  %5 = alloca ptr, align 8
  %6 = alloca ptr, align 8
  %7 = alloca i64, align 8
  %8 = alloca ptr, align 8
  %9 = alloca i64, align 8
  store ptr %0, ptr %5, align 8
  store ptr %1, ptr %6, align 8
  store i64 %2, ptr %7, align 8
  %10 = load ptr, ptr %6, align 8
  %11 = icmp eq ptr %10, null
  br i1 %11, label %12, label %13

12:                                               ; preds = %3
  call void (ptr, ...) @cli_errmsg(ptr noundef @.str.17)
  store ptr null, ptr %4, align 8
  br label %36

13:                                               ; preds = %3
  %14 = load ptr, ptr %6, align 8
  %15 = load i64, ptr %7, align 8
  %16 = call i64 @strnlen(ptr noundef %14, i64 noundef %15) #7
  %17 = add i64 %16, 1
  store i64 %17, ptr %9, align 8
  %18 = load ptr, ptr %5, align 8
  %19 = load i64, ptr %9, align 8
  %20 = call ptr @mpool_malloc(ptr noundef %18, i64 noundef %19)
  store ptr %20, ptr %8, align 8
  %21 = load ptr, ptr %8, align 8
  %22 = icmp ne ptr %21, null
  br i1 %22, label %25, label %23

23:                                               ; preds = %13
  %24 = load i64, ptr %9, align 8
  call void (ptr, ...) @cli_errmsg(ptr noundef @.str.18, i64 noundef %24)
  br label %30

25:                                               ; preds = %13
  %26 = load ptr, ptr %8, align 8
  %27 = load ptr, ptr %6, align 8
  %28 = load i64, ptr %9, align 8
  %29 = sub i64 %28, 1
  call void @llvm.memcpy.p0.p0.i64(ptr align 1 %26, ptr align 1 %27, i64 %29, i1 false)
  br label %30

30:                                               ; preds = %25, %23
  %31 = load ptr, ptr %8, align 8
  %32 = load i64, ptr %9, align 8
  %33 = sub i64 %32, 1
  %34 = getelementptr inbounds i8, ptr %31, i64 %33
  store i8 0, ptr %34, align 1
  %35 = load ptr, ptr %8, align 8
  store ptr %35, ptr %4, align 8
  br label %36

36:                                               ; preds = %30, %12
  %37 = load ptr, ptr %4, align 8
  ret ptr %37
}