; Function Attrs: nounwind uwtable
define ptr @cli_mpool_strndup(ptr noundef %0, ptr noundef readonly %1, i64 noundef %2) local_unnamed_addr #0 {
  %4 = icmp eq ptr %1, null
  br i1 %4, label %5, label %6

5:                                                ; preds = %3
  tail call void (ptr, ...) @cli_errmsg(ptr noundef nonnull @.str.17) #10
  br label %14

6:                                                ; preds = %3
  %7 = tail call i64 @strnlen(ptr noundef nonnull %1, i64 noundef %2) #11
  %8 = add i64 %7, 1
  %9 = tail call ptr @mpool_malloc(ptr noundef %0, i64 noundef %8)
  %.not = icmp eq ptr %9, null
  br i1 %.not, label %10, label %11

10:                                               ; preds = %6
  tail call void (ptr, ...) @cli_errmsg(ptr noundef nonnull @.str.18, i64 noundef %8) #10
  br label %12

11:                                               ; preds = %6
  tail call void @llvm.memcpy.p0.p0.i64(ptr nonnull align 1 %9, ptr nonnull align 1 %1, i64 %7, i1 false)
  br label %12

12:                                               ; preds = %11, %10
  %13 = getelementptr inbounds i8, ptr %9, i64 %7
  store i8 0, ptr %13, align 1
  br label %14

14:                                               ; preds = %12, %5
  %.0 = phi ptr [ null, %5 ], [ %9, %12 ]
  ret ptr %.0
}